; Function Attrs: nounwind uwtable
define dso_local void @bioCreateCompRq(i32 noundef %0, ptr noundef %1, i64 noundef %2, ptr noundef %3) local_unnamed_addr #0 {
  %5 = icmp ult i32 %0, 3
  br i1 %5, label %switch.lookup, label %6

6:                                                ; preds = %4
  tail call void (ptr, i32, ptr, ...) @_serverPanic(ptr noundef nonnull @.str.1, i32 noundef 218, ptr noundef nonnull @.str.4) #11
  tail call void @abort() #14
  unreachable

switch.lookup:                                    ; preds = %4
  %switch.offset = or disjoint i32 %0, 4
  %7 = tail call noalias dereferenceable_or_null(32) ptr @zmalloc(i64 noundef 32) #15
  %8 = getelementptr inbounds nuw i8, ptr %7, i64 8
  store ptr %1, ptr %8, align 8, !tbaa !61
  %9 = getelementptr inbounds nuw i8, ptr %7, i64 16
  store i64 %2, ptr %9, align 8, !tbaa !61
  %10 = getelementptr inbounds nuw i8, ptr %7, i64 24
  store ptr %3, ptr %10, align 8, !tbaa !61
  store i32 %switch.offset, ptr %7, align 8, !tbaa !61
  %11 = zext nneg i32 %switch.offset to i64
  %12 = getelementptr inbounds nuw [7 x i32], ptr @bio_job_to_worker, i64 0, i64 %11
  %13 = load i32, ptr %12, align 4, !tbaa !41
  %14 = zext i32 %13 to i64
  %15 = getelementptr inbounds nuw [3 x %union.pthread_mutex_t], ptr @bio_mutex, i64 0, i64 %14
  %16 = tail call i32 @pthread_mutex_lock(ptr noundef nonnull %15) #11
  %17 = getelementptr inbounds nuw [3 x ptr], ptr @bio_jobs, i64 0, i64 %14
  %18 = load ptr, ptr %17, align 8, !tbaa !5
  %19 = tail call ptr @listAddNodeTail(ptr noundef %18, ptr noundef nonnull %7) #11
  %20 = getelementptr inbounds nuw [7 x i64], ptr @bio_jobs_counter, i64 0, i64 %11
  %21 = load i64, ptr %20, align 8, !tbaa !43
  %22 = add i64 %21, 1
  store i64 %22, ptr %20, align 8, !tbaa !43
  %23 = getelementptr inbounds nuw [3 x %union.pthread_cond_t], ptr @bio_newjob_cond, i64 0, i64 %14
  %24 = tail call i32 @pthread_cond_signal(ptr noundef nonnull %23) #11
  %25 = tail call i32 @pthread_mutex_unlock(ptr noundef nonnull %15) #11
  ret void
}